(dp1
S'files'
p2
(dp3
S'source_var'
p4
(dp5
S'index'
p6
(dp7
S'html_filename'
p8
S'source_var.html'
p9
sS'name'
p10
S'source_var'
p11
sS'nums'
p12
ccopy_reg
_reconstructor
p13
(ccoverage.results
Numbers
p14
c__builtin__
object
p15
NtRp16
(dp17
S'n_files'
p18
I1
sS'n_branches'
p19
I0
sS'n_statements'
p20
I68
sS'n_excluded'
p21
I0
sS'n_partial_branches'
p22
I0
sS'n_missing'
p23
I42
sS'n_missing_branches'
p24
I0
sbssS'hash'
p25
S'\x00\xf4Nn\x1b-\xe3\x03\xfc{\xcd4\x98@<\xbe'
p26
ssS'reannotright'
p27
(dp28
g6
(dp29
g8
S'reannotright.html'
p30
sg10
S'reannotright'
p31
sg12
g13
(g14
g15
NtRp32
(dp33
g18
I1
sg19
I0
sg20
I9
sg21
I0
sg22
I0
sg23
I0
sg24
I0
sbssg25
S't\xfd\x95\xd3`"(B\xd1\x19\x15\x9e\x855g\x0c'
p34
ssS'butterfilt'
p35
(dp36
g6
(dp37
g8
S'butterfilt.html'
p38
sg10
S'butterfilt'
p39
sg12
g13
(g14
g15
NtRp40
(dp41
g18
I1
sg19
I0
sg20
I4
sg21
I0
sg22
I0
sg23
I0
sg24
I0
sbssg25
S'\x15\\\xb9\xc1F\xe0\xffj y|\x08\xf5\xa0nY'
p42
ssS'testcase_integrate_test'
p43
(dp44
g6
(dp45
g8
S'testcase_integrate_test.html'
p46
sg10
S'testcase/integrate_test'
p47
sg12
g13
(g14
g15
NtRp48
(dp49
g18
I1
sg19
I0
sg20
I11
sg21
I0
sg22
I0
sg23
I1
sg24
I0
sbssg25
S'v&\xb5;\xe9\xf7D\xe7\xf9\x81\x8f\xe0\x96\x0b\x8d/'
p50
ssS'integrator'
p51
(dp52
g6
(dp53
g8
S'integrator.html'
p54
sg10
S'integrator'
p55
sg12
g13
(g14
g15
NtRp56
(dp57
g18
I1
sg19
I0
sg20
I8
sg21
I0
sg22
I0
sg23
I0
sg24
I0
sbssg25
S'B:`Q\xe5g\x87\x0c\x1b\xbb\x02\x03B\x92\xea='
p58
ssS'featurescom'
p59
(dp60
g6
(dp61
S'html_filename'
p62
S'featurescom.html'
p63
sS'name'
p64
g59
sS'nums'
p65
g13
(g14
g15
NtRp66
(dp67
g18
I1
sg19
I0
sg20
I79
sg21
I0
sg22
I0
sg23
I79
sg24
I0
sbssg25
S'\xa0\x7f\x9d\xfd%\xc3\x8b\x1c++\x01\xdc\xcaK\x9b\xba'
p68
ssS'testcase_EMA_test'
p69
(dp70
g6
(dp71
g8
S'testcase_EMA_test.html'
p72
sg10
S'testcase/EMA_test'
p73
sg12
g13
(g14
g15
NtRp74
(dp75
g18
I1
sg19
I0
sg20
I11
sg21
I0
sg22
I0
sg23
I1
sg24
I0
sbssg25
S'S}\x8f\xe9\xb8\x97\x12\xf8\xb8|\xe3\xa3\xc31\x04\xd4'
p76
ssS'test2'
p77
(dp78
g6
(dp79
g62
S'test2.html'
p80
sg64
g77
sg65
g13
(g14
g15
NtRp81
(dp82
g18
I1
sg19
I0
sg20
I35
sg21
I0
sg22
I0
sg23
I35
sg24
I0
sbssg25
S'-"\xbe\x82\xf8\nN;\xe5\x03\xc4\xa1V\xbeu7'
p83
ssS'searchActive'
p84
(dp85
g6
(dp86
g62
S'searchActive.html'
p87
sg64
g84
sg65
g13
(g14
g15
NtRp88
(dp89
g18
I1
sg19
I0
sg20
I57
sg21
I0
sg22
I0
sg23
I57
sg24
I0
sbssg25
S'\xff\xc5\x1e\xe7R|-\xccO0\xdc\xd3{\xd9\x0f\xaa'
p90
ssS'mytilt'
p91
(dp92
g6
(dp93
g8
S'mytilt.html'
p94
sg10
S'mytilt'
p95
sg12
g13
(g14
g15
NtRp96
(dp97
g18
I1
sg19
I0
sg20
I76
sg21
I0
sg22
I0
sg23
I0
sg24
I0
sbssg25
S'\xda\xdfA\xb6\x96\x04\xce\xc5\x80\x9b11\xb1\x19\x00\xcd'
p98
ssS'testcase_test_scaling_general'
p99
(dp100
g6
(dp101
g8
S'testcase_test_scaling_general.html'
p102
sg10
S'testcase/test_scaling_general'
p103
sg12
g13
(g14
g15
NtRp104
(dp105
g18
I1
sg19
I0
sg20
I31
sg21
I0
sg22
I0
sg23
I1
sg24
I0
sbssg25
S'\xdaD~O\xc8($\xfe\xa4\xe6a\xa41~\x10\xdf'
p106
ssS'testcase_smaFeat_test'
p107
(dp108
g6
(dp109
g8
S'testcase_smaFeat_test.html'
p110
sg10
S'testcase/smaFeat_test'
p111
sg12
g13
(g14
g15
NtRp112
(dp113
g18
I1
sg19
I0
sg20
I13
sg21
I0
sg22
I0
sg23
I1
sg24
I0
sbssg25
S'\xe5\xae\xd9^\x84\xe7Z\xedO8W\xef\x8a\xa0\x85.'
p114
ssS'testcase_reanot_test'
p115
(dp116
g6
(dp117
g8
S'testcase_reanot_test.html'
p118
sg10
S'testcase/reanot_test'
p119
sg12
g13
(g14
g15
NtRp120
(dp121
g18
I1
sg19
I0
sg20
I14
sg21
I0
sg22
I0
sg23
I1
sg24
I0
sbssg25
S'\x14\xf9/\xcf\xac\xc0rV\xd3A\xc4\xd1I\xc2\x8b\x91'
p122
ssS'microannotate_right'
p123
(dp124
g6
(dp125
g8
S'microannotate_right.html'
p126
sg10
S'microannotate_right'
p127
sg12
g13
(g14
g15
NtRp128
(dp129
g18
I1
sg19
I0
sg20
I52
sg21
I0
sg22
I0
sg23
I24
sg24
I0
sbssg25
S'\xcf\x91\x81\xf3\x0c \xec\\\xc8\xfc\x82Q\xe1\x04H\xfe'
p130
ssS'testcase_tilt_angle_test'
p131
(dp132
g6
(dp133
g8
S'testcase_tilt_angle_test.html'
p134
sg10
S'testcase/tilt_angle_test'
p135
sg12
g13
(g14
g15
NtRp136
(dp137
g18
I1
sg19
I0
sg20
I26
sg21
I0
sg22
I0
sg23
I1
sg24
I0
sbssg25
S'\xe3\xa7\x8d\xeaK\x07\xc4A\xe3\xe4\xa6*L|g\xfd'
p138
ssS'window'
p139
(dp140
g6
(dp141
g62
S'window.html'
p142
sg64
g139
sg65
g13
(g14
g15
NtRp143
(dp144
g18
I1
sg19
I0
sg20
I26
sg21
I0
sg22
I0
sg23
I26
sg24
I0
sbssg25
S'\xe1\xb1f\x16p\xc0\n\xb1\xf6\xe8\xb0\x1e\xa4#\xca0'
p145
ssS'angularinteg'
p146
(dp147
g6
(dp148
g8
S'angularinteg.html'
p149
sg10
S'angularinteg'
p150
sg12
g13
(g14
g15
NtRp151
(dp152
g18
I1
sg19
I0
sg20
I10
sg21
I0
sg22
I0
sg23
I0
sg24
I0
sbssg25
S'm\xeac\x8eY\xd7\xac\x89\x12\xca\x1b`\xf5\xb9\xc0\xa5'
p153
ssS'testcase_energy_test'
p154
(dp155
g6
(dp156
g8
S'testcase_energy_test.html'
p157
sg10
S'testcase/energy_test'
p158
sg12
g13
(g14
g15
NtRp159
(dp160
g18
I1
sg19
I0
sg20
I13
sg21
I0
sg22
I0
sg23
I1
sg24
I0
sbssg25
S'T\xedSp\xcbs\xa3\x03\xb9\xb7\xe8\xf8\x0b\xb94k'
p161
ssS'test'
p162
(dp163
g6
(dp164
g62
S'test.html'
p165
sg64
g162
sg65
g13
(g14
g15
NtRp166
(dp167
g18
I1
sg19
I0
sg20
I10
sg21
I0
sg22
I0
sg23
I10
sg24
I0
sbssg25
S'\xb2\xb4\x84\x7f\xec\xf5aEJ5l\t\xeb\xa0\xc3K'
p168
ssS'main'
p169
(dp170
g6
(dp171
g62
S'main.html'
p172
sg64
g169
sg65
g13
(g14
g15
NtRp173
(dp174
g18
I1
sg19
I0
sg20
I18
sg21
I0
sg22
I0
sg23
I18
sg24
I0
sbssg25
S'\\\xebm\xa48[\xdb\xcc\xb1\xab\x1f2\xac\xdf\xf1\xc6'
p175
ssS'emafit'
p176
(dp177
g6
(dp178
g8
S'emafit.html'
p179
sg10
S'emafit'
p180
sg12
g13
(g14
g15
NtRp181
(dp182
g18
I1
sg19
I0
sg20
I11
sg21
I0
sg22
I0
sg23
I0
sg24
I0
sbssg25
S'!\xd5\xeb\xc9\xed\xe8\x99\x97\xbe:\xba\t\xfc2\xe5\xcc'
p183
ssS'energyFeat'
p184
(dp185
g6
(dp186
g8
S'energyFeat.html'
p187
sg10
S'energyFeat'
p188
sg12
g13
(g14
g15
NtRp189
(dp190
g18
I1
sg19
I0
sg20
I6
sg21
I0
sg22
I0
sg23
I0
sg24
I0
sbssg25
S'\xad\x10\xfdS\xec\xa9\x01\x80\xf7\x8e\xb5\x9e1"\xe2r'
p191
ssS'activefeat'
p192
(dp193
g6
(dp194
g62
S'activefeat.html'
p195
sg64
g192
sg65
g13
(g14
g15
NtRp196
(dp197
g18
I1
sg19
I0
sg20
I33
sg21
I0
sg22
I0
sg23
I33
sg24
I0
sbssg25
S')\x9dU\x05\xd5\xb1\xd3!\x14\x16\x8b\xe3q\xa0\x11\xad'
p198
ssS'gscale'
p199
(dp200
g6
(dp201
g8
S'gscale.html'
p202
sg10
S'gscale'
p203
sg12
g13
(g14
g15
NtRp204
(dp205
g18
I1
sg19
I0
sg20
I5
sg21
I0
sg22
I0
sg23
I0
sg24
I0
sbssg25
S'\x9ew:=:\x9a\xabm9\x8a3\xa7\x92\xe9\x0c\xa7'
p206
ssS'ascale'
p207
(dp208
g6
(dp209
g8
S'ascale.html'
p210
sg10
S'ascale'
p211
sg12
g13
(g14
g15
NtRp212
(dp213
g18
I1
sg19
I0
sg20
I34
sg21
I0
sg22
I0
sg23
I0
sg24
I0
sbssg25
S'\xf8\xe6NtI\x07\xc9\x96\xdf\x87\x03j\xbf#\x99\xf5'
p214
ssS'kalman_filt'
p215
(dp216
g6
(dp217
g8
S'kalman_filt.html'
p218
sg10
S'kalman_filt'
p219
sg12
g13
(g14
g15
NtRp220
(dp221
g18
I1
sg19
I0
sg20
I16
sg21
I0
sg22
I0
sg23
I0
sg24
I0
sbssg25
S'SC\xeaD<\xcc\x02B/Gd*\x9b\x8e\xdeB'
p222
ssS'searchmax'
p223
(dp224
g6
(dp225
g8
S'searchmax.html'
p226
sg10
S'searchmax'
p227
sg12
g13
(g14
g15
NtRp228
(dp229
g18
I1
sg19
I0
sg20
I39
sg21
I0
sg22
I0
sg23
I35
sg24
I0
sbssg25
S'N\xa5\xfa\xffxW\xe1\xeaL\x9cJ|\xe4<\x1c?'
p230
ssS'testcase___init__'
p231
(dp232
g6
(dp233
g8
S'testcase___init__.html'
p234
sg10
S'testcase/__init__'
p235
sg12
g13
(g14
g15
NtRp236
(dp237
g18
I1
sg19
I0
sg20
I1
sg21
I0
sg22
I0
sg23
I0
sg24
I0
sbssg25
S'D\xc2\x9c\xa2\x10\xad\xe60\xc5\x8d\x01\xf7t\x8a2\xe1'
p238
ssS'testcase_gyro_scaling_test'
p239
(dp240
g6
(dp241
g8
S'testcase_gyro_scaling_test.html'
p242
sg10
S'testcase/gyro_scaling_test'
p243
sg12
g13
(g14
g15
NtRp244
(dp245
g18
I1
sg19
I0
sg20
I45
sg21
I0
sg22
I0
sg23
I1
sg24
I0
sbssg25
S'\xa4\x83\xac@\x80\xf4\xcb\x8c\xbf\xb1\x83\xa9\xa2\xb5\xe1f'
p246
ssS'weka_file'
p247
(dp248
g6
(dp249
g62
S'weka_file.html'
p250
sg64
g247
sg65
g13
(g14
g15
NtRp251
(dp252
g18
I1
sg19
I0
sg20
I27
sg21
I0
sg22
I0
sg23
I27
sg24
I0
sbssg25
S'\x9f\x8dx\xf1\xc7\xc5{\x939\xa0\x9a$\x99\xd6=\x81'
p253
ssS'threshold_function'
p254
(dp255
g6
(dp256
g62
S'threshold_function.html'
p257
sg64
g254
sg65
g13
(g14
g15
NtRp258
(dp259
g18
I1
sg19
I0
sg20
I21
sg21
I0
sg22
I0
sg23
I21
sg24
I0
sbssg25
S'\xd7\xbdW\x9e\x0cV\x90\xc8\x1b]R}\xecK@c'
p260
ssS'acceltilt'
p261
(dp262
g6
(dp263
g8
S'acceltilt.html'
p264
sg10
S'acceltilt'
p265
sg12
g13
(g14
g15
NtRp266
(dp267
g18
I1
sg19
I0
sg20
I22
sg21
I0
sg22
I0
sg23
I3
sg24
I0
sbssg25
S'ZZ\xb0\xa9YF\xacO\xad\xedQ\x83i}?m'
p268
ssS'testcase_accel_scaling_test'
p269
(dp270
g6
(dp271
g8
S'testcase_accel_scaling_test.html'
p272
sg10
S'testcase/accel_scaling_test'
p273
sg12
g13
(g14
g15
NtRp274
(dp275
g18
I1
sg19
I0
sg20
I36
sg21
I0
sg22
I0
sg23
I1
sg24
I0
sbssg25
S'lp\x1ao\x13\xc7\xf4;Y\x819\x19\x1a\x8c\xd0"'
p276
ssS'mainTrainingGenerator'
p277
(dp278
g6
(dp279
g62
S'mainTrainingGenerator.html'
p280
sg64
g277
sg65
g13
(g14
g15
NtRp281
(dp282
g18
I1
sg19
I0
sg20
I23
sg21
I0
sg22
I0
sg23
I23
sg24
I0
sbssg25
S'\x01\xb8]\xcaA6|\xc7\xa5GG\x86I\x192d'
p283
ssS'scale_file'
p284
(dp285
g6
(dp286
g8
S'scale_file.html'
p287
sg10
S'scale_file'
p288
sg12
g13
(g14
g15
NtRp289
(dp290
g18
I1
sg19
I0
sg20
I61
sg21
I0
sg22
I0
sg23
I22
sg24
I0
sbssg25
S'\xeb\x0b\xb0\x80+Z\x05\xbc\xf2T\x81\xbff33#'
p291
ssS'smaFeat'
p292
(dp293
g6
(dp294
g8
S'smaFeat.html'
p295
sg10
S'smaFeat'
p296
sg12
g13
(g14
g15
NtRp297
(dp298
g18
I1
sg19
I0
sg20
I13
sg21
I0
sg22
I0
sg23
I0
sg24
I0
sbssg25
S'c0\x9e\xb82\x1d6\xaa\n\xe1\x8d \xc7\xb82{'
p299
ssS'writeWeka'
p300
(dp301
g6
(dp302
g62
S'writeWeka.html'
p303
sg64
g300
sg65
g13
(g14
g15
NtRp304
(dp305
g18
I1
sg19
I0
sg20
I51
sg21
I0
sg22
I0
sg23
I51
sg24
I0
sbssg25
S'\x83\x03!4\xa6\xbd+ \xa9\xfe\xa7M\x82\x93\xde\xfc'
p306
ssS'trainingSetGenerator'
p307
(dp308
g6
(dp309
g62
S'trainingSetGenerator.html'
p310
sg64
g307
sg65
g13
(g14
g15
NtRp311
(dp312
g18
I1
sg19
I0
sg20
I16
sg21
I0
sg22
I0
sg23
I16
sg24
I0
sbssg25
S'@3o]+Wl\xb4d\xa0\xe3E\xc3N\xee\x88'
p313
ssS'testcase_micro_annotate_test'
p314
(dp315
g6
(dp316
g8
S'testcase_micro_annotate_test.html'
p317
sg10
S'testcase/micro_annotate_test'
p318
sg12
g13
(g14
g15
NtRp319
(dp320
g18
I1
sg19
I0
sg20
I16
sg21
I0
sg22
I0
sg23
I7
sg24
I0
sbssg25
S'\xd0\x0ex\x04\xb5P\xd1\x0fd\xff\x96i\x00\xbbg\\'
p321
sssS'version'
p322
S'3.7.1'
p323
sS'settings'
p324
S"=\xc2,\xbb3Tr\xac\xd7\x9b\xda\xc9\xc4'2\x86"
p325
sS'format'
p326
I1
s.